target datalayout = "e-m:e-p270:32:32-p271:32:32-p272:64:64-i64:64-i128:128-f80:128-n8:16:32:64-S128"
target triple = "x86_64-pc-linux-gnu"

%struct.stepd_step_rec_t = type { ptr, ptr, i32, %union.pthread_cond_t, %union.pthread_mutex_t, %struct.slurm_step_id_msg, i32, i32, i32, i32, i32, i32, ptr, ptr, i32, i32, ptr, i32, i32, i32, i32, i32, ptr, ptr, ptr, ptr, i32, i32, i64, i64, i16, i32, ptr, ptr, ptr, i32, ptr, i32, ptr, i32, ptr, i16, i32, i32, i32, ptr, i32, ptr, ptr, ptr, ptr, i32, i32, ptr, ptr, i8, i8, i8, i64, i32, ptr, ptr, ptr, ptr, ptr, ptr, ptr, ptr, ptr, ptr, i32, i32, ptr, i8, %union.pthread_cond_t, %union.pthread_mutex_t, i64, ptr, i32, i32, i32, ptr, i64, ptr, ptr, i8, ptr, i16, ptr, ptr, ptr, ptr, ptr, ptr, i64, ptr, i64, ptr, i16, i8, i16, i32, ptr, i16, ptr, ptr, i16, ptr, ptr, ptr, i8 }
%struct.slurm_step_id_msg = type { i64, i32, i32, i32 }
%union.pthread_cond_t = type { %struct.__pthread_cond_s }
%struct.__pthread_cond_s = type { %union.__atomic_wide_counter, %union.__atomic_wide_counter, [2 x i32], [2 x i32], i32, i32, [2 x i32] }
%union.__atomic_wide_counter = type { i64 }
%union.pthread_mutex_t = type { %struct.__pthread_mutex_s }
%struct.__pthread_mutex_s = type { i32, i32, i32, i32, i32, i16, i16, %struct.__pthread_internal_list }
%struct.__pthread_internal_list = type { ptr, ptr }
%union.pthread_attr_t = type { i64, [48 x i8] }

@.str = private unnamed_addr constant [29 x i8] c"%s: pthread_mutex_lock(): %m\00", align 1
@__func__.io_thread_start = private unnamed_addr constant [16 x i8] c"io_thread_start\00", align 1
@.str.1 = private unnamed_addr constant [22 x i8] c"pthread_attr_init: %m\00", align 1
@.str.2 = private unnamed_addr constant [26 x i8] c"pthread_attr_setscope: %m\00", align 1
@.str.3 = private unnamed_addr constant [30 x i8] c"pthread_attr_setstacksize: %m\00", align 1
@.str.4 = private unnamed_addr constant [35 x i8] c"%s: pthread_attr_setdetachstate %m\00", align 1
@.str.5 = private unnamed_addr constant [28 x i8] c"%s: pthread_create error %m\00", align 1
@.str.6 = private unnamed_addr constant [55 x i8] c"pthread_attr_destroy failed, possible memory leak!: %m\00", align 1
@.str.7 = private unnamed_addr constant [31 x i8] c"%s: pthread_mutex_unlock(): %m\00", align 1

; Function Attrs: nounwind uwtable
define dso_local void @io_thread_start(ptr noundef %0) #0 {
  %2 = alloca ptr, align 8
  %3 = alloca i32, align 4
  %4 = alloca i64, align 8
  %5 = alloca %union.pthread_attr_t, align 8
  %6 = alloca i32, align 4
  %7 = alloca i32, align 4
  %8 = alloca i32, align 4
  %9 = alloca i32, align 4
  store ptr %0, ptr %2, align 8
  br label %10

10:                                               ; preds = %1
  call void @llvm.lifetime.start.p0(i64 4, ptr %3) #10
  %11 = load ptr, ptr %2, align 8
  %12 = getelementptr inbounds nuw %struct.stepd_step_rec_t, ptr %11, i32 0, i32 75
  %13 = call i32 @pthread_mutex_lock(ptr noundef %12) #10
  store i32 %13, ptr %3, align 4
  %14 = load i32, ptr %3, align 4
  %15 = icmp ne i32 %14, 0
  br i1 %15, label %16, label %19

16:                                               ; preds = %10
  %17 = load i32, ptr %3, align 4
  %18 = call ptr @__errno_location() #11
  store i32 %17, ptr %18, align 4
  call void (ptr, ...) @fatal_abort(ptr noundef @.str, ptr noundef @__func__.io_thread_start) #12
  unreachable

19:                                               ; preds = %10
  call void @llvm.lifetime.end.p0(i64 4, ptr %3) #10
  br label %20

20:                                               ; preds = %19
  br label %21

21:                                               ; preds = %20
  call void @llvm.lifetime.start.p0(i64 8, ptr %4) #10
  call void @llvm.lifetime.start.p0(i64 56, ptr %5) #10
  call void @llvm.lifetime.start.p0(i64 4, ptr %6) #10
  br label %22

22:                                               ; preds = %21
  call void @llvm.lifetime.start.p0(i64 4, ptr %7) #10
  %23 = call i32 @pthread_attr_init(ptr noundef %5) #10
  store i32 %23, ptr %7, align 4
  %24 = load i32, ptr %7, align 4
  %25 = icmp ne i32 %24, 0
  br i1 %25, label %26, label %29

26:                                               ; preds = %22
  %27 = load i32, ptr %7, align 4
  %28 = call ptr @__errno_location() #11
  store i32 %27, ptr %28, align 4
  call void (ptr, ...) @fatal(ptr noundef @.str.1) #12
  unreachable

29:                                               ; preds = %22
  %30 = call i32 @pthread_attr_setscope(ptr noundef %5, i32 noundef 0) #10
  store i32 %30, ptr %7, align 4
  %31 = load i32, ptr %7, align 4
  %32 = icmp ne i32 %31, 0
  br i1 %32, label %33, label %37

33:                                               ; preds = %29
  %34 = load i32, ptr %7, align 4
  %35 = call ptr @__errno_location() #11
  store i32 %34, ptr %35, align 4
  %36 = call i32 (ptr, ...) @error(ptr noundef @.str.2)
  br label %37

37:                                               ; preds = %33, %29
  %38 = call i32 @pthread_attr_setstacksize(ptr noundef %5, i64 noundef 1048576) #10
  store i32 %38, ptr %7, align 4
  %39 = load i32, ptr %7, align 4
  %40 = icmp ne i32 %39, 0
  br i1 %40, label %41, label %45

41:                                               ; preds = %37
  %42 = load i32, ptr %7, align 4
  %43 = call ptr @__errno_location() #11
  store i32 %42, ptr %43, align 4
  %44 = call i32 (ptr, ...) @error(ptr noundef @.str.3)
  br label %45

45:                                               ; preds = %41, %37
  call void @llvm.lifetime.end.p0(i64 4, ptr %7) #10
  br label %46

46:                                               ; preds = %45
  br label %47

47:                                               ; preds = %46
  %48 = call i32 @pthread_attr_setdetachstate(ptr noundef %5, i32 noundef 1) #10
  store i32 %48, ptr %6, align 4
  %49 = load i32, ptr %6, align 4
  %50 = icmp ne i32 %49, 0
  br i1 %50, label %51, label %54

51:                                               ; preds = %47
  %52 = load i32, ptr %6, align 4
  %53 = call ptr @__errno_location() #11
  store i32 %52, ptr %53, align 4
  call void (ptr, ...) @fatal(ptr noundef @.str.4, ptr noundef @__func__.io_thread_start) #12
  unreachable

54:                                               ; preds = %47
  %55 = load ptr, ptr %2, align 8
  %56 = call i32 @pthread_create(ptr noundef %4, ptr noundef %5, ptr noundef @_io_thr, ptr noundef %55) #10
  store i32 %56, ptr %6, align 4
  %57 = load i32, ptr %6, align 4
  %58 = icmp ne i32 %57, 0
  br i1 %58, label %59, label %62

59:                                               ; preds = %54
  %60 = load i32, ptr %6, align 4
  %61 = call ptr @__errno_location() #11
  store i32 %60, ptr %61, align 4
  call void (ptr, ...) @fatal(ptr noundef @.str.5, ptr noundef @__func__.io_thread_start) #12
  unreachable

62:                                               ; preds = %54
  br label %63

63:                                               ; preds = %62
  call void @llvm.lifetime.start.p0(i64 4, ptr %8) #10
  %64 = call i32 @pthread_attr_destroy(ptr noundef %5) #10
  store i32 %64, ptr %8, align 4
  %65 = load i32, ptr %8, align 4
  %66 = icmp ne i32 %65, 0
  br i1 %66, label %67, label %71

67:                                               ; preds = %63
  %68 = load i32, ptr %8, align 4
  %69 = call ptr @__errno_location() #11
  store i32 %68, ptr %69, align 4
  %70 = call i32 (ptr, ...) @error(ptr noundef @.str.6)
  br label %71

71:                                               ; preds = %67, %63
  call void @llvm.lifetime.end.p0(i64 4, ptr %8) #10
  br label %72

72:                                               ; preds = %71
  br label %73

73:                                               ; preds = %72
  call void @llvm.lifetime.end.p0(i64 4, ptr %6) #10
  call void @llvm.lifetime.end.p0(i64 56, ptr %5) #10
  call void @llvm.lifetime.end.p0(i64 8, ptr %4) #10
  br label %74

74:                                               ; preds = %73
  %75 = load ptr, ptr %2, align 8
  %76 = getelementptr inbounds nuw %struct.stepd_step_rec_t, ptr %75, i32 0, i32 73
  store i8 1, ptr %76, align 8
  br label %77

77:                                               ; preds = %74
  call void @llvm.lifetime.start.p0(i64 4, ptr %9) #10
  %78 = load ptr, ptr %2, align 8
  %79 = getelementptr inbounds nuw %struct.stepd_step_rec_t, ptr %78, i32 0, i32 75
  %80 = call i32 @pthread_mutex_unlock(ptr noundef %79) #10
  store i32 %80, ptr %9, align 4
  %81 = load i32, ptr %9, align 4
  %82 = icmp ne i32 %81, 0
  br i1 %82, label %83, label %86

83:                                               ; preds = %77
  %84 = load i32, ptr %9, align 4
  %85 = call ptr @__errno_location() #11
  store i32 %84, ptr %85, align 4
  call void (ptr, ...) @fatal_abort(ptr noundef @.str.7, ptr noundef @__func__.io_thread_start) #12
  unreachable

86:                                               ; preds = %77
  call void @llvm.lifetime.end.p0(i64 4, ptr %9) #10
  br label %87

87:                                               ; preds = %86
  ret void
}