; Function Attrs: nounwind uwtable
define dso_local void @io_thread_start(ptr noundef %0) local_unnamed_addr #0 {
  %2 = alloca i64, align 8
  %3 = alloca %union.pthread_attr_t, align 8
  %4 = getelementptr inbounds nuw i8, ptr %0, i64 616
  %5 = tail call i32 @pthread_mutex_lock(ptr noundef nonnull %4) #11
  %.not = icmp eq i32 %5, 0
  br i1 %.not, label %8, label %6

6:                                                ; preds = %1
  %7 = tail call ptr @__errno_location() #13
  store i32 %5, ptr %7, align 4
  tail call void (ptr, ...) @fatal_abort(ptr noundef nonnull @.str, ptr noundef nonnull @__func__.io_thread_start) #12
  unreachable

8:                                                ; preds = %1
  call void @llvm.lifetime.start.p0(i64 8, ptr nonnull %2) #11
  call void @llvm.lifetime.start.p0(i64 56, ptr nonnull %3) #11
  %9 = call i32 @pthread_attr_init(ptr noundef nonnull %3) #11
  %.not26 = icmp eq i32 %9, 0
  br i1 %.not26, label %12, label %10

10:                                               ; preds = %8
  %11 = tail call ptr @__errno_location() #13
  store i32 %9, ptr %11, align 4
  call void (ptr, ...) @fatal(ptr noundef nonnull @.str.1) #12
  unreachable

12:                                               ; preds = %8
  %13 = call i32 @pthread_attr_setscope(ptr noundef nonnull %3, i32 noundef 0) #11
  %.not27 = icmp eq i32 %13, 0
  br i1 %.not27, label %17, label %14

14:                                               ; preds = %12
  %15 = tail call ptr @__errno_location() #13
  store i32 %13, ptr %15, align 4
  %16 = call i32 (ptr, ...) @error(ptr noundef nonnull @.str.2) #11
  br label %17

17:                                               ; preds = %14, %12
  %18 = call i32 @pthread_attr_setstacksize(ptr noundef nonnull %3, i64 noundef 1048576) #11
  %.not28 = icmp eq i32 %18, 0
  br i1 %.not28, label %22, label %19

19:                                               ; preds = %17
  %20 = tail call ptr @__errno_location() #13
  store i32 %18, ptr %20, align 4
  %21 = call i32 (ptr, ...) @error(ptr noundef nonnull @.str.3) #11
  br label %22

22:                                               ; preds = %19, %17
  %23 = call i32 @pthread_attr_setdetachstate(ptr noundef nonnull %3, i32 noundef 1) #11
  %.not29 = icmp eq i32 %23, 0
  br i1 %.not29, label %26, label %24

24:                                               ; preds = %22
  %25 = tail call ptr @__errno_location() #13
  store i32 %23, ptr %25, align 4
  call void (ptr, ...) @fatal(ptr noundef nonnull @.str.4, ptr noundef nonnull @__func__.io_thread_start) #12
  unreachable

26:                                               ; preds = %22
  %27 = call i32 @pthread_create(ptr noundef nonnull %2, ptr noundef nonnull %3, ptr noundef nonnull @_io_thr, ptr noundef nonnull %0) #11
  %.not30 = icmp eq i32 %27, 0
  br i1 %.not30, label %30, label %28

28:                                               ; preds = %26
  %29 = tail call ptr @__errno_location() #13
  store i32 %27, ptr %29, align 4
  call void (ptr, ...) @fatal(ptr noundef nonnull @.str.5, ptr noundef nonnull @__func__.io_thread_start) #12
  unreachable

30:                                               ; preds = %26
  %31 = call i32 @pthread_attr_destroy(ptr noundef nonnull %3) #11
  %.not31 = icmp eq i32 %31, 0
  br i1 %.not31, label %35, label %32

32:                                               ; preds = %30
  %33 = tail call ptr @__errno_location() #13
  store i32 %31, ptr %33, align 4
  %34 = call i32 (ptr, ...) @error(ptr noundef nonnull @.str.6) #11
  br label %35

35:                                               ; preds = %32, %30
  call void @llvm.lifetime.end.p0(i64 56, ptr nonnull %3) #11
  call void @llvm.lifetime.end.p0(i64 8, ptr nonnull %2) #11
  %36 = getelementptr inbounds nuw i8, ptr %0, i64 560
  store i8 1, ptr %36, align 8
  %37 = call i32 @pthread_mutex_unlock(ptr noundef nonnull %4) #11
  %.not32 = icmp eq i32 %37, 0
  br i1 %.not32, label %40, label %38

38:                                               ; preds = %35
  %39 = tail call ptr @__errno_location() #13
  store i32 %37, ptr %39, align 4
  call void (ptr, ...) @fatal_abort(ptr noundef nonnull @.str.7, ptr noundef nonnull @__func__.io_thread_start) #12
  unreachable

40:                                               ; preds = %35
  ret void
}